target datalayout = "e-m:e-p270:32:32-p271:32:32-p272:64:64-i64:64-i128:128-f80:128-n8:16:32:64-S128"
target triple = "x86_64-pc-linux-gnu"

%struct.bignum_st = type { ptr, i32, i32, i32, i32 }

; Function Attrs: nounwind uwtable
define i32 @bn_sqr_fixed_top(ptr noundef %0, ptr noundef %1, ptr noundef %2) #0 {
  %4 = alloca i32, align 4
  %5 = alloca ptr, align 8
  %6 = alloca ptr, align 8
  %7 = alloca ptr, align 8
  %8 = alloca i32, align 4
  %9 = alloca i32, align 4
  %10 = alloca i32, align 4
  %11 = alloca ptr, align 8
  %12 = alloca ptr, align 8
  %13 = alloca i32, align 4
  %14 = alloca [32 x i64], align 16
  %15 = alloca i32, align 4
  %16 = alloca i32, align 4
  store ptr %0, ptr %5, align 8, !tbaa !3
  store ptr %1, ptr %6, align 8, !tbaa !3
  store ptr %2, ptr %7, align 8, !tbaa !8
  call void @llvm.lifetime.start.p0(i64 4, ptr %8) #4
  call void @llvm.lifetime.start.p0(i64 4, ptr %9) #4
  call void @llvm.lifetime.start.p0(i64 4, ptr %10) #4
  store i32 0, ptr %10, align 4, !tbaa !10
  call void @llvm.lifetime.start.p0(i64 8, ptr %11) #4
  call void @llvm.lifetime.start.p0(i64 8, ptr %12) #4
  %17 = load ptr, ptr %6, align 8, !tbaa !3
  %18 = getelementptr inbounds nuw %struct.bignum_st, ptr %17, i32 0, i32 1
  %19 = load i32, ptr %18, align 8, !tbaa !12
  store i32 %19, ptr %9, align 4, !tbaa !10
  %20 = load i32, ptr %9, align 4, !tbaa !10
  %21 = icmp sle i32 %20, 0
  br i1 %21, label %22, label %27

22:                                               ; preds = %3
  %23 = load ptr, ptr %5, align 8, !tbaa !3
  %24 = getelementptr inbounds nuw %struct.bignum_st, ptr %23, i32 0, i32 1
  store i32 0, ptr %24, align 8, !tbaa !12
  %25 = load ptr, ptr %5, align 8, !tbaa !3
  %26 = getelementptr inbounds nuw %struct.bignum_st, ptr %25, i32 0, i32 3
  store i32 0, ptr %26, align 8, !tbaa !15
  store i32 1, ptr %4, align 4
  store i32 1, ptr %13, align 4
  br label %164

27:                                               ; preds = %3
  %28 = load ptr, ptr %7, align 8, !tbaa !8
  call void @BN_CTX_start(ptr noundef %28)
  %29 = load ptr, ptr %6, align 8, !tbaa !3
  %30 = load ptr, ptr %5, align 8, !tbaa !3
  %31 = icmp ne ptr %29, %30
  br i1 %31, label %32, label %34

32:                                               ; preds = %27
  %33 = load ptr, ptr %5, align 8, !tbaa !3
  br label %37

34:                                               ; preds = %27
  %35 = load ptr, ptr %7, align 8, !tbaa !8
  %36 = call ptr @BN_CTX_get(ptr noundef %35)
  br label %37

37:                                               ; preds = %34, %32
  %38 = phi ptr [ %33, %32 ], [ %36, %34 ]
  store ptr %38, ptr %12, align 8, !tbaa !3
  %39 = load ptr, ptr %7, align 8, !tbaa !8
  %40 = call ptr @BN_CTX_get(ptr noundef %39)
  store ptr %40, ptr %11, align 8, !tbaa !3
  %41 = load ptr, ptr %12, align 8, !tbaa !3
  %42 = icmp eq ptr %41, null
  br i1 %42, label %46, label %43

43:                                               ; preds = %37
  %44 = load ptr, ptr %11, align 8, !tbaa !3
  %45 = icmp eq ptr %44, null
  br i1 %45, label %46, label %47

46:                                               ; preds = %43, %37
  br label %161

47:                                               ; preds = %43
  %48 = load i32, ptr %9, align 4, !tbaa !10
  %49 = mul nsw i32 2, %48
  store i32 %49, ptr %8, align 4, !tbaa !10
  %50 = load ptr, ptr %12, align 8, !tbaa !3
  %51 = load i32, ptr %8, align 4, !tbaa !10
  %52 = call ptr @bn_wexpand(ptr noundef %50, i32 noundef %51)
  %53 = icmp eq ptr %52, null
  br i1 %53, label %54, label %55

54:                                               ; preds = %47
  br label %161

55:                                               ; preds = %47
  %56 = load i32, ptr %9, align 4, !tbaa !10
  %57 = icmp eq i32 %56, 4
  br i1 %57, label %58, label %65

58:                                               ; preds = %55
  %59 = load ptr, ptr %12, align 8, !tbaa !3
  %60 = getelementptr inbounds nuw %struct.bignum_st, ptr %59, i32 0, i32 0
  %61 = load ptr, ptr %60, align 8, !tbaa !16
  %62 = load ptr, ptr %6, align 8, !tbaa !3
  %63 = getelementptr inbounds nuw %struct.bignum_st, ptr %62, i32 0, i32 0
  %64 = load ptr, ptr %63, align 8, !tbaa !16
  call void @bn_sqr_comba4(ptr noundef %61, ptr noundef %64)
  br label %141

65:                                               ; preds = %55
  %66 = load i32, ptr %9, align 4, !tbaa !10
  %67 = icmp eq i32 %66, 8
  br i1 %67, label %68, label %75

68:                                               ; preds = %65
  %69 = load ptr, ptr %12, align 8, !tbaa !3
  %70 = getelementptr inbounds nuw %struct.bignum_st, ptr %69, i32 0, i32 0
  %71 = load ptr, ptr %70, align 8, !tbaa !16
  %72 = load ptr, ptr %6, align 8, !tbaa !3
  %73 = getelementptr inbounds nuw %struct.bignum_st, ptr %72, i32 0, i32 0
  %74 = load ptr, ptr %73, align 8, !tbaa !16
  call void @bn_sqr_comba8(ptr noundef %71, ptr noundef %74)
  br label %140

75:                                               ; preds = %65
  %76 = load i32, ptr %9, align 4, !tbaa !10
  %77 = icmp slt i32 %76, 16
  br i1 %77, label %78, label %87

78:                                               ; preds = %75
  call void @llvm.lifetime.start.p0(i64 256, ptr %14) #4
  %79 = load ptr, ptr %12, align 8, !tbaa !3
  %80 = getelementptr inbounds nuw %struct.bignum_st, ptr %79, i32 0, i32 0
  %81 = load ptr, ptr %80, align 8, !tbaa !16
  %82 = load ptr, ptr %6, align 8, !tbaa !3
  %83 = getelementptr inbounds nuw %struct.bignum_st, ptr %82, i32 0, i32 0
  %84 = load ptr, ptr %83, align 8, !tbaa !16
  %85 = load i32, ptr %9, align 4, !tbaa !10
  %86 = getelementptr inbounds [32 x i64], ptr %14, i64 0, i64 0
  call void @bn_sqr_normal(ptr noundef %81, ptr noundef %84, i32 noundef %85, ptr noundef %86)
  call void @llvm.lifetime.end.p0(i64 256, ptr %14) #4
  br label %139

87:                                               ; preds = %75
  call void @llvm.lifetime.start.p0(i64 4, ptr %15) #4
  call void @llvm.lifetime.start.p0(i64 4, ptr %16) #4
  %88 = load i32, ptr %9, align 4, !tbaa !10
  %89 = sext i32 %88 to i64
  %90 = call i32 @BN_num_bits_word(i64 noundef %89)
  store i32 %90, ptr %15, align 4, !tbaa !10
  %91 = load i32, ptr %15, align 4, !tbaa !10
  %92 = sub nsw i32 %91, 1
  %93 = shl i32 1, %92
  store i32 %93, ptr %15, align 4, !tbaa !10
  %94 = load i32, ptr %15, align 4, !tbaa !10
  %95 = load i32, ptr %15, align 4, !tbaa !10
  %96 = add nsw i32 %94, %95
  store i32 %96, ptr %16, align 4, !tbaa !10
  %97 = load i32, ptr %9, align 4, !tbaa !10
  %98 = load i32, ptr %15, align 4, !tbaa !10
  %99 = icmp eq i32 %97, %98
  br i1 %99, label %100, label %118

100:                                              ; preds = %87
  %101 = load ptr, ptr %11, align 8, !tbaa !3
  %102 = load i32, ptr %16, align 4, !tbaa !10
  %103 = mul nsw i32 %102, 2
  %104 = call ptr @bn_wexpand(ptr noundef %101, i32 noundef %103)
  %105 = icmp eq ptr %104, null
  br i1 %105, label %106, label %107

106:                                              ; preds = %100
  store i32 2, ptr %13, align 4
  br label %136

107:                                              ; preds = %100
  %108 = load ptr, ptr %12, align 8, !tbaa !3
  %109 = getelementptr inbounds nuw %struct.bignum_st, ptr %108, i32 0, i32 0
  %110 = load ptr, ptr %109, align 8, !tbaa !16
  %111 = load ptr, ptr %6, align 8, !tbaa !3
  %112 = getelementptr inbounds nuw %struct.bignum_st, ptr %111, i32 0, i32 0
  %113 = load ptr, ptr %112, align 8, !tbaa !16
  %114 = load i32, ptr %9, align 4, !tbaa !10
  %115 = load ptr, ptr %11, align 8, !tbaa !3
  %116 = getelementptr inbounds nuw %struct.bignum_st, ptr %115, i32 0, i32 0
  %117 = load ptr, ptr %116, align 8, !tbaa !16
  call void @bn_sqr_recursive(ptr noundef %110, ptr noundef %113, i32 noundef %114, ptr noundef %117)
  br label %135

118:                                              ; preds = %87
  %119 = load ptr, ptr %11, align 8, !tbaa !3
  %120 = load i32, ptr %8, align 4, !tbaa !10
  %121 = call ptr @bn_wexpand(ptr noundef %119, i32 noundef %120)
  %122 = icmp eq ptr %121, null
  br i1 %122, label %123, label %124

123:                                              ; preds = %118
  store i32 2, ptr %13, align 4
  br label %136

124:                                              ; preds = %118
  %125 = load ptr, ptr %12, align 8, !tbaa !3
  %126 = getelementptr inbounds nuw %struct.bignum_st, ptr %125, i32 0, i32 0
  %127 = load ptr, ptr %126, align 8, !tbaa !16
  %128 = load ptr, ptr %6, align 8, !tbaa !3
  %129 = getelementptr inbounds nuw %struct.bignum_st, ptr %128, i32 0, i32 0
  %130 = load ptr, ptr %129, align 8, !tbaa !16
  %131 = load i32, ptr %9, align 4, !tbaa !10
  %132 = load ptr, ptr %11, align 8, !tbaa !3
  %133 = getelementptr inbounds nuw %struct.bignum_st, ptr %132, i32 0, i32 0
  %134 = load ptr, ptr %133, align 8, !tbaa !16
  call void @bn_sqr_normal(ptr noundef %127, ptr noundef %130, i32 noundef %131, ptr noundef %134)
  br label %135

135:                                              ; preds = %124, %107
  store i32 0, ptr %13, align 4
  br label %136

136:                                              ; preds = %123, %106, %135
  call void @llvm.lifetime.end.p0(i64 4, ptr %16) #4
  call void @llvm.lifetime.end.p0(i64 4, ptr %15) #4
  %137 = load i32, ptr %13, align 4
  switch i32 %137, label %164 [
    i32 0, label %138
    i32 2, label %161
  ]

138:                                              ; preds = %136
  br label %139

139:                                              ; preds = %138, %78
  br label %140

140:                                              ; preds = %139, %68
  br label %141

141:                                              ; preds = %140, %58
  %142 = load ptr, ptr %12, align 8, !tbaa !3
  %143 = getelementptr inbounds nuw %struct.bignum_st, ptr %142, i32 0, i32 3
  store i32 0, ptr %143, align 8, !tbaa !15
  %144 = load i32, ptr %8, align 4, !tbaa !10
  %145 = load ptr, ptr %12, align 8, !tbaa !3
  %146 = getelementptr inbounds nuw %struct.bignum_st, ptr %145, i32 0, i32 1
  store i32 %144, ptr %146, align 8, !tbaa !12
  %147 = load ptr, ptr %12, align 8, !tbaa !3
  %148 = getelementptr inbounds nuw %struct.bignum_st, ptr %147, i32 0, i32 4
  %149 = load i32, ptr %148, align 4, !tbaa !17
  %150 = or i32 %149, 0
  store i32 %150, ptr %148, align 4, !tbaa !17
  %151 = load ptr, ptr %5, align 8, !tbaa !3
  %152 = load ptr, ptr %12, align 8, !tbaa !3
  %153 = icmp ne ptr %151, %152
  br i1 %153, label %154, label %160

154:                                              ; preds = %141
  %155 = load ptr, ptr %5, align 8, !tbaa !3
  %156 = load ptr, ptr %12, align 8, !tbaa !3
  %157 = call ptr @BN_copy(ptr noundef %155, ptr noundef %156)
  %158 = icmp eq ptr %157, null
  br i1 %158, label %159, label %160

159:                                              ; preds = %154
  br label %161

160:                                              ; preds = %154, %141
  store i32 1, ptr %10, align 4, !tbaa !10
  br label %161

161:                                              ; preds = %160, %136, %159, %54, %46
  %162 = load ptr, ptr %7, align 8, !tbaa !8
  call void @BN_CTX_end(ptr noundef %162)
  %163 = load i32, ptr %10, align 4, !tbaa !10
  store i32 %163, ptr %4, align 4
  store i32 1, ptr %13, align 4
  br label %164

164:                                              ; preds = %161, %136, %22
  call void @llvm.lifetime.end.p0(i64 8, ptr %12) #4
  call void @llvm.lifetime.end.p0(i64 8, ptr %11) #4
  call void @llvm.lifetime.end.p0(i64 4, ptr %10) #4
  call void @llvm.lifetime.end.p0(i64 4, ptr %9) #4
  call void @llvm.lifetime.end.p0(i64 4, ptr %8) #4
  %165 = load i32, ptr %4, align 4
  ret i32 %165
}