; Function Attrs: nounwind uwtable
define range(i32 0, 2) i32 @bn_sqr_fixed_top(ptr noundef %0, ptr noundef readonly captures(address) %1, ptr noundef %2) local_unnamed_addr #0 {
  %4 = alloca [32 x i64], align 16
  %5 = getelementptr inbounds nuw i8, ptr %1, i64 8
  %6 = load i32, ptr %5, align 8, !tbaa !3
  %7 = icmp slt i32 %6, 1
  br i1 %7, label %8, label %11

8:                                                ; preds = %3
  %9 = getelementptr inbounds nuw i8, ptr %0, i64 8
  store i32 0, ptr %9, align 8, !tbaa !3
  %10 = getelementptr inbounds nuw i8, ptr %0, i64 16
  store i32 0, ptr %10, align 8, !tbaa !10
  br label %63

11:                                               ; preds = %3
  tail call void @BN_CTX_start(ptr noundef %2) #4
  %.not = icmp eq ptr %1, %0
  br i1 %.not, label %12, label %14

12:                                               ; preds = %11
  %13 = tail call ptr @BN_CTX_get(ptr noundef %2) #4
  br label %14

14:                                               ; preds = %11, %12
  %15 = phi ptr [ %13, %12 ], [ %0, %11 ]
  %16 = tail call ptr @BN_CTX_get(ptr noundef %2) #4
  %17 = icmp eq ptr %15, null
  %18 = icmp eq ptr %16, null
  %or.cond = select i1 %17, i1 true, i1 %18
  br i1 %or.cond, label %62, label %19

19:                                               ; preds = %14
  %20 = shl nuw nsw i32 %6, 1
  %21 = tail call ptr @bn_wexpand(ptr noundef nonnull %15, i32 noundef %20) #4
  %22 = icmp eq ptr %21, null
  br i1 %22, label %62, label %23

23:                                               ; preds = %19
  switch i32 %6, label %30 [
    i32 4, label %24
    i32 8, label %27
  ]

24:                                               ; preds = %23
  %25 = load ptr, ptr %15, align 8, !tbaa !11
  %26 = load ptr, ptr %1, align 8, !tbaa !11
  tail call void @bn_sqr_comba4(ptr noundef %25, ptr noundef %26) #4
  br label %.thread

27:                                               ; preds = %23
  %28 = load ptr, ptr %15, align 8, !tbaa !11
  %29 = load ptr, ptr %1, align 8, !tbaa !11
  tail call void @bn_sqr_comba8(ptr noundef %28, ptr noundef %29) #4
  br label %.thread

30:                                               ; preds = %23
  %31 = icmp samesign ult i32 %6, 16
  br i1 %31, label %32, label %35

32:                                               ; preds = %30
  call void @llvm.lifetime.start.p0(i64 256, ptr nonnull %4) #4
  %33 = load ptr, ptr %15, align 8, !tbaa !11
  %34 = load ptr, ptr %1, align 8, !tbaa !11
  call void @bn_sqr_normal(ptr noundef %33, ptr noundef %34, i32 noundef %6, ptr noundef nonnull %4)
  call void @llvm.lifetime.end.p0(i64 256, ptr nonnull %4) #4
  br label %.thread

35:                                               ; preds = %30
  %36 = zext nneg i32 %6 to i64
  %37 = tail call i32 @BN_num_bits_word(i64 noundef %36) #4
  %38 = add nsw i32 %37, -1
  %39 = shl nuw i32 1, %38
  %40 = icmp eq i32 %6, %39
  br i1 %40, label %41, label %49

41:                                               ; preds = %35
  %42 = shl i32 4, %38
  %43 = tail call ptr @bn_wexpand(ptr noundef nonnull %16, i32 noundef %42) #4
  %44 = icmp eq ptr %43, null
  br i1 %44, label %62, label %45

45:                                               ; preds = %41
  %46 = load ptr, ptr %15, align 8, !tbaa !11
  %47 = load ptr, ptr %1, align 8, !tbaa !11
  %48 = load ptr, ptr %16, align 8, !tbaa !11
  tail call void @bn_sqr_recursive(ptr noundef %46, ptr noundef %47, i32 noundef %6, ptr noundef %48)
  br label %.thread

49:                                               ; preds = %35
  %50 = tail call ptr @bn_wexpand(ptr noundef nonnull %16, i32 noundef %20) #4
  %51 = icmp eq ptr %50, null
  br i1 %51, label %62, label %52

52:                                               ; preds = %49
  %53 = load ptr, ptr %15, align 8, !tbaa !11
  %54 = load ptr, ptr %1, align 8, !tbaa !11
  %55 = load ptr, ptr %16, align 8, !tbaa !11
  tail call void @bn_sqr_normal(ptr noundef %53, ptr noundef %54, i32 noundef %6, ptr noundef %55)
  br label %.thread

.thread:                                          ; preds = %45, %52, %27, %32, %24
  %56 = getelementptr inbounds nuw i8, ptr %15, i64 16
  store i32 0, ptr %56, align 8, !tbaa !10
  %57 = getelementptr inbounds nuw i8, ptr %15, i64 8
  store i32 %20, ptr %57, align 8, !tbaa !3
  %.not61 = icmp eq ptr %0, %15
  br i1 %.not61, label %61, label %58

58:                                               ; preds = %.thread
  %59 = call ptr @BN_copy(ptr noundef %0, ptr noundef nonnull %15) #4
  %60 = icmp eq ptr %59, null
  br i1 %60, label %62, label %61

61:                                               ; preds = %58, %.thread
  br label %62

62:                                               ; preds = %41, %49, %58, %19, %14, %61
  %.055 = phi i32 [ 0, %14 ], [ 0, %19 ], [ 0, %58 ], [ 1, %61 ], [ 0, %49 ], [ 0, %41 ]
  call void @BN_CTX_end(ptr noundef %2) #4
  br label %63

63:                                               ; preds = %62, %8
  %.0 = phi i32 [ 1, %8 ], [ %.055, %62 ]
  ret i32 %.0
}